target datalayout = "e-m:e-p270:32:32-p271:32:32-p272:64:64-i64:64-i128:128-f80:128-n8:16:32:64-S128"
target triple = "x86_64-pc-linux-gnu"

%struct.BrotliDecoderStateStruct = type { i32, i32, %struct.BrotliBitReader, ptr, ptr, ptr, %union.anon, i64, i32, i32, i32, i32, i32, i32, [4 x i32], i32, i32, ptr, ptr, ptr, ptr, ptr, ptr, %struct.HuffmanTreeGroup, %struct.HuffmanTreeGroup, %struct.HuffmanTreeGroup, ptr, ptr, i32, i32, [3 x i64], i64, [3 x i64], [6 x i64], i64, i64, i64, ptr, ptr, i64, i64, i64, [65 x i32], i32, i32, i8, ptr, ptr, ptr, i64, i32, i32, i32, i32, i32, i32, i64, ptr, ptr, ptr, ptr, [8 x i32], %union.anon.0 }
%struct.BrotliBitReader = type { i64, i64, ptr, ptr, ptr }
%union.anon = type { i64 }
%struct.HuffmanTreeGroup = type { ptr, ptr, i16, i16, i16 }
%union.anon.0 = type { %struct.BrotliMetablockBodyArena }
%struct.BrotliMetablockBodyArena = type { [544 x i8], [544 x i64] }

; Function Attrs: nounwind uwtable
define hidden i32 @BrotliDecoderHuffmanTreeGroupInit(ptr noundef %0, ptr noundef %1, i64 noundef %2, i64 noundef %3, i64 noundef %4) #0 {
  %6 = alloca ptr, align 8
  %7 = alloca ptr, align 8
  %8 = alloca i64, align 8
  %9 = alloca i64, align 8
  %10 = alloca i64, align 8
  %11 = alloca i64, align 8
  %12 = alloca i64, align 8
  %13 = alloca i64, align 8
  %14 = alloca ptr, align 8
  store ptr %0, ptr %6, align 8, !tbaa !3
  store ptr %1, ptr %7, align 8, !tbaa !8
  store i64 %2, ptr %8, align 8, !tbaa !60
  store i64 %3, ptr %9, align 8, !tbaa !60
  store i64 %4, ptr %10, align 8, !tbaa !60
  call void @llvm.lifetime.start.p0(i64 8, ptr %11) #3
  %15 = load i64, ptr %9, align 8, !tbaa !60
  %16 = add i64 %15, 376
  store i64 %16, ptr %11, align 8, !tbaa !60
  call void @llvm.lifetime.start.p0(i64 8, ptr %12) #3
  %17 = load i64, ptr %10, align 8, !tbaa !60
  %18 = mul i64 4, %17
  %19 = load i64, ptr %11, align 8, !tbaa !60
  %20 = mul i64 %18, %19
  store i64 %20, ptr %12, align 8, !tbaa !60
  call void @llvm.lifetime.start.p0(i64 8, ptr %13) #3
  %21 = load i64, ptr %10, align 8, !tbaa !60
  %22 = mul i64 8, %21
  store i64 %22, ptr %13, align 8, !tbaa !60
  call void @llvm.lifetime.start.p0(i64 8, ptr %14) #3
  %23 = load ptr, ptr %6, align 8, !tbaa !3
  %24 = getelementptr inbounds nuw %struct.BrotliDecoderStateStruct, ptr %23, i32 0, i32 3
  %25 = load ptr, ptr %24, align 8, !tbaa !9
  %26 = load ptr, ptr %6, align 8, !tbaa !3
  %27 = getelementptr inbounds nuw %struct.BrotliDecoderStateStruct, ptr %26, i32 0, i32 5
  %28 = load ptr, ptr %27, align 8, !tbaa !20
  %29 = load i64, ptr %12, align 8, !tbaa !60
  %30 = load i64, ptr %13, align 8, !tbaa !60
  %31 = add i64 %29, %30
  %32 = call ptr %25(ptr noundef %28, i64 noundef %31)
  store ptr %32, ptr %14, align 8, !tbaa !8
  %33 = load i64, ptr %8, align 8, !tbaa !60
  %34 = trunc i64 %33 to i16
  %35 = load ptr, ptr %7, align 8, !tbaa !8
  %36 = getelementptr inbounds nuw %struct.HuffmanTreeGroup, ptr %35, i32 0, i32 2
  store i16 %34, ptr %36, align 8, !tbaa !64
  %37 = load i64, ptr %9, align 8, !tbaa !60
  %38 = trunc i64 %37 to i16
  %39 = load ptr, ptr %7, align 8, !tbaa !8
  %40 = getelementptr inbounds nuw %struct.HuffmanTreeGroup, ptr %39, i32 0, i32 3
  store i16 %38, ptr %40, align 2, !tbaa !65
  %41 = load i64, ptr %10, align 8, !tbaa !60
  %42 = trunc i64 %41 to i16
  %43 = load ptr, ptr %7, align 8, !tbaa !8
  %44 = getelementptr inbounds nuw %struct.HuffmanTreeGroup, ptr %43, i32 0, i32 4
  store i16 %42, ptr %44, align 4, !tbaa !66
  %45 = load ptr, ptr %14, align 8, !tbaa !8
  %46 = load ptr, ptr %7, align 8, !tbaa !8
  %47 = getelementptr inbounds nuw %struct.HuffmanTreeGroup, ptr %46, i32 0, i32 0
  store ptr %45, ptr %47, align 8, !tbaa !67
  %48 = load ptr, ptr %14, align 8, !tbaa !8
  %49 = icmp ne ptr %48, null
  br i1 %49, label %50, label %54

50:                                               ; preds = %5
  %51 = load ptr, ptr %14, align 8, !tbaa !8
  %52 = load i64, ptr %10, align 8, !tbaa !60
  %53 = getelementptr inbounds nuw ptr, ptr %51, i64 %52
  br label %55

54:                                               ; preds = %5
  br label %55

55:                                               ; preds = %54, %50
  %56 = phi ptr [ %53, %50 ], [ null, %54 ]
  %57 = load ptr, ptr %7, align 8, !tbaa !8
  %58 = getelementptr inbounds nuw %struct.HuffmanTreeGroup, ptr %57, i32 0, i32 1
  store ptr %56, ptr %58, align 8, !tbaa !68
  %59 = load ptr, ptr %14, align 8, !tbaa !8
  %60 = icmp ne ptr %59, null
  %61 = xor i1 %60, true
  %62 = xor i1 %61, true
  %63 = zext i1 %62 to i32
  call void @llvm.lifetime.end.p0(i64 8, ptr %14) #3
  call void @llvm.lifetime.end.p0(i64 8, ptr %13) #3
  call void @llvm.lifetime.end.p0(i64 8, ptr %12) #3
  call void @llvm.lifetime.end.p0(i64 8, ptr %11) #3
  ret i32 %63
}